target datalayout = "e-m:e-p270:32:32-p271:32:32-p272:64:64-i64:64-i128:128-f80:128-n8:16:32:64-S128"
target triple = "x86_64-unknown-linux-gnu"

%struct.rcu_head = type { ptr, ptr }
%struct.QTailQLink = type { ptr, ptr }
%struct.VirtioBusClass = type { %struct.BusClass, ptr, ptr, ptr, ptr, ptr, ptr, ptr, ptr, ptr, ptr, ptr, ptr, ptr, ptr, ptr, ptr, ptr, ptr, ptr, ptr, i8, ptr, ptr }
%struct.BusClass = type { %struct.ObjectClass, ptr, ptr, ptr, ptr, ptr, ptr, ptr, i32, i32 }
%struct.ObjectClass = type { ptr, ptr, [4 x ptr], [4 x ptr], ptr, ptr }
%struct.BusState = type { %struct.Object, ptr, ptr, ptr, i32, i8, i8, i32, %union.BusChildHead, %struct.BusStateEntry, %struct.ResettableState }
%struct.Object = type { ptr, ptr, ptr, i32, ptr }
%union.BusChildHead = type { %struct.QTailQLink }
%struct.BusStateEntry = type { ptr, ptr }
%struct.ResettableState = type { i32, i8, i8 }
%struct.VirtioDeviceClass = type { %struct.DeviceClass, ptr, ptr, ptr, ptr, ptr, ptr, ptr, ptr, ptr, ptr, ptr, ptr, i64, ptr, ptr, ptr, ptr, ptr, ptr, ptr, ptr, ptr, ptr, ptr }
%struct.DeviceClass = type { %struct.ObjectClass, [1 x i64], ptr, ptr, ptr, i8, i8, ptr, ptr, ptr, ptr, ptr }
%struct.VirtioBusState = type { %struct.BusState, i8, i32 }
%struct.BusChild = type { %struct.rcu_head, ptr, i32, %union.anon.4 }
%union.anon.4 = type { %struct.QTailQLink }

@.str.5 = private unnamed_addr constant [44 x i8] c"%s: failed. Fallback to userspace (slower).\00", align 1
@__func__.virtio_bus_start_ioeventfd = private unnamed_addr constant [27 x i8] c"virtio_bus_start_ioeventfd\00", align 1
@.str.8 = private unnamed_addr constant [7 x i8] c"device\00", align 1
@.str.9 = private unnamed_addr constant [101 x i8] c"/home/dtcxzyw/WorkSpace/Projects/compilers/llvm-opt-benchmark/bench/qemu/qemu/include/hw/qdev-core.h\00", align 1
@__func__.DEVICE = private unnamed_addr constant [7 x i8] c"DEVICE\00", align 1
@.str.10 = private unnamed_addr constant [4 x i8] c"bus\00", align 1
@__func__.BUS = private unnamed_addr constant [4 x i8] c"BUS\00", align 1
@.str.11 = private unnamed_addr constant [11 x i8] c"virtio-bus\00", align 1
@.str.12 = private unnamed_addr constant [109 x i8] c"/home/dtcxzyw/WorkSpace/Projects/compilers/llvm-opt-benchmark/bench/qemu/qemu/include/hw/virtio/virtio-bus.h\00", align 1
@__func__.VIRTIO_BUS_GET_CLASS = private unnamed_addr constant [21 x i8] c"VIRTIO_BUS_GET_CLASS\00", align 1
@.str.13 = private unnamed_addr constant [14 x i8] c"virtio-device\00", align 1
@.str.14 = private unnamed_addr constant [105 x i8] c"/home/dtcxzyw/WorkSpace/Projects/compilers/llvm-opt-benchmark/bench/qemu/qemu/include/hw/virtio/virtio.h\00", align 1
@__func__.VIRTIO_DEVICE_GET_CLASS = private unnamed_addr constant [24 x i8] c"VIRTIO_DEVICE_GET_CLASS\00", align 1

; Function Attrs: nounwind sspstrong uwtable
define internal ptr @VIRTIO_DEVICE_GET_CLASS(ptr noundef %obj) #0 {
entry:
  %obj.addr = alloca ptr, align 8
  store ptr %obj, ptr %obj.addr, align 8
  %0 = load ptr, ptr %obj.addr, align 8
  %call = call ptr @object_get_class(ptr noundef %0)
  %call1 = call ptr @object_class_dynamic_cast_assert(ptr noundef %call, ptr noundef @.str.13, ptr noundef @.str.14, i32 noundef 85, ptr noundef @__func__.VIRTIO_DEVICE_GET_CLASS)
  ret ptr %call1
}

; Function Attrs: nounwind sspstrong uwtable
define internal ptr @virtio_bus_get_device(ptr noundef %bus) #0 {
entry:
  %bus.addr = alloca ptr, align 8
  %qbus = alloca ptr, align 8
  %kid = alloca ptr, align 8
  %qdev = alloca ptr, align 8
  store ptr %bus, ptr %bus.addr, align 8
  %0 = load ptr, ptr %bus.addr, align 8
  %parent_obj = getelementptr inbounds %struct.VirtioBusState, ptr %0, i32 0, i32 0
  store ptr %parent_obj, ptr %qbus, align 8
  %1 = load ptr, ptr %qbus, align 8
  %children = getelementptr inbounds %struct.BusState, ptr %1, i32 0, i32 8
  %2 = load ptr, ptr %children, align 8
  store ptr %2, ptr %kid, align 8
  %3 = load ptr, ptr %kid, align 8
  %tobool = icmp ne ptr %3, null
  br i1 %tobool, label %cond.true, label %cond.false

cond.true:                                        ; preds = %entry
  %4 = load ptr, ptr %kid, align 8
  %child = getelementptr inbounds %struct.BusChild, ptr %4, i32 0, i32 1
  %5 = load ptr, ptr %child, align 8
  br label %cond.end

cond.false:                                       ; preds = %entry
  br label %cond.end

cond.end:                                         ; preds = %cond.false, %cond.true
  %cond = phi ptr [ %5, %cond.true ], [ null, %cond.false ]
  store ptr %cond, ptr %qdev, align 8
  %6 = load ptr, ptr %qdev, align 8
  ret ptr %6
}

; Function Attrs: nounwind sspstrong uwtable
define internal ptr @DEVICE(ptr noundef %obj) #0 {
entry:
  %obj.addr = alloca ptr, align 8
  store ptr %obj, ptr %obj.addr, align 8
  %0 = load ptr, ptr %obj.addr, align 8
  %call = call ptr @object_dynamic_cast_assert(ptr noundef %0, ptr noundef @.str.8, ptr noundef @.str.9, i32 noundef 77, ptr noundef @__func__.DEVICE)
  ret ptr %call
}

; Function Attrs: nounwind sspstrong uwtable
define internal ptr @BUS(ptr noundef %obj) #0 {
entry:
  %obj.addr = alloca ptr, align 8
  store ptr %obj, ptr %obj.addr, align 8
  %0 = load ptr, ptr %obj.addr, align 8
  %call = call ptr @object_dynamic_cast_assert(ptr noundef %0, ptr noundef @.str.10, ptr noundef @.str.9, i32 noundef 316, ptr noundef @__func__.BUS)
  ret ptr %call
}

; Function Attrs: nounwind sspstrong uwtable
define internal ptr @VIRTIO_BUS_GET_CLASS(ptr noundef %obj) #0 {
entry:
  %obj.addr = alloca ptr, align 8
  store ptr %obj, ptr %obj.addr, align 8
  %0 = load ptr, ptr %obj.addr, align 8
  %call = call ptr @object_get_class(ptr noundef %0)
  %call1 = call ptr @object_class_dynamic_cast_assert(ptr noundef %call, ptr noundef @.str.11, ptr noundef @.str.12, i32 noundef 36, ptr noundef @__func__.VIRTIO_BUS_GET_CLASS)
  ret ptr %call1
}

; Function Attrs: nounwind sspstrong uwtable
define dso_local i32 @virtio_bus_start_ioeventfd(ptr noundef %bus) #0 {
entry:
  %retval = alloca i32, align 4
  %bus.addr = alloca ptr, align 8
  %k = alloca ptr, align 8
  %proxy = alloca ptr, align 8
  %vdev = alloca ptr, align 8
  %vdc = alloca ptr, align 8
  %r = alloca i32, align 4
  store ptr %bus, ptr %bus.addr, align 8
  %0 = load ptr, ptr %bus.addr, align 8
  %call = call ptr @VIRTIO_BUS_GET_CLASS(ptr noundef %0)
  store ptr %call, ptr %k, align 8
  %1 = load ptr, ptr %bus.addr, align 8
  %call1 = call ptr @BUS(ptr noundef %1)
  %parent = getelementptr inbounds %struct.BusState, ptr %call1, i32 0, i32 1
  %2 = load ptr, ptr %parent, align 8
  %call2 = call ptr @DEVICE(ptr noundef %2)
  store ptr %call2, ptr %proxy, align 8
  %3 = load ptr, ptr %bus.addr, align 8
  %call3 = call ptr @virtio_bus_get_device(ptr noundef %3)
  store ptr %call3, ptr %vdev, align 8
  %4 = load ptr, ptr %vdev, align 8
  %call4 = call ptr @VIRTIO_DEVICE_GET_CLASS(ptr noundef %4)
  store ptr %call4, ptr %vdc, align 8
  %5 = load ptr, ptr %k, align 8
  %ioeventfd_assign = getelementptr inbounds %struct.VirtioBusClass, ptr %5, i32 0, i32 19
  %6 = load ptr, ptr %ioeventfd_assign, align 8
  %tobool = icmp ne ptr %6, null
  br i1 %tobool, label %lor.lhs.false, label %if.then

lor.lhs.false:                                    ; preds = %entry
  %7 = load ptr, ptr %k, align 8
  %ioeventfd_enabled = getelementptr inbounds %struct.VirtioBusClass, ptr %7, i32 0, i32 18
  %8 = load ptr, ptr %ioeventfd_enabled, align 8
  %9 = load ptr, ptr %proxy, align 8
  %call5 = call zeroext i1 %8(ptr noundef %9)
  br i1 %call5, label %if.end, label %if.then

if.then:                                          ; preds = %lor.lhs.false, %entry
  store i32 -38, ptr %retval, align 4
  br label %return

if.end:                                           ; preds = %lor.lhs.false
  %10 = load ptr, ptr %bus.addr, align 8
  %ioeventfd_started = getelementptr inbounds %struct.VirtioBusState, ptr %10, i32 0, i32 1
  %11 = load i8, ptr %ioeventfd_started, align 8
  %tobool6 = trunc i8 %11 to i1
  br i1 %tobool6, label %if.then7, label %if.end8

if.then7:                                         ; preds = %if.end
  store i32 0, ptr %retval, align 4
  br label %return

if.end8:                                          ; preds = %if.end
  %12 = load ptr, ptr %bus.addr, align 8
  %ioeventfd_grabbed = getelementptr inbounds %struct.VirtioBusState, ptr %12, i32 0, i32 2
  %13 = load i32, ptr %ioeventfd_grabbed, align 4
  %tobool9 = icmp ne i32 %13, 0
  br i1 %tobool9, label %if.end14, label %if.then10

if.then10:                                        ; preds = %if.end8
  %14 = load ptr, ptr %vdc, align 8
  %start_ioeventfd = getelementptr inbounds %struct.VirtioDeviceClass, ptr %14, i32 0, i32 16
  %15 = load ptr, ptr %start_ioeventfd, align 8
  %16 = load ptr, ptr %vdev, align 8
  %call11 = call i32 %15(ptr noundef %16)
  store i32 %call11, ptr %r, align 4
  %17 = load i32, ptr %r, align 4
  %cmp = icmp slt i32 %17, 0
  br i1 %cmp, label %if.then12, label %if.end13

if.then12:                                        ; preds = %if.then10
  call void (ptr, ...) @error_report(ptr noundef @.str.5, ptr noundef @__func__.virtio_bus_start_ioeventfd)
  %18 = load i32, ptr %r, align 4
  store i32 %18, ptr %retval, align 4
  br label %return

if.end13:                                         ; preds = %if.then10
  br label %if.end14

if.end14:                                         ; preds = %if.end13, %if.end8
  %19 = load ptr, ptr %bus.addr, align 8
  %ioeventfd_started15 = getelementptr inbounds %struct.VirtioBusState, ptr %19, i32 0, i32 1
  store i8 1, ptr %ioeventfd_started15, align 8
  store i32 0, ptr %retval, align 4
  br label %return

return:                                           ; preds = %if.end14, %if.then12, %if.then7, %if.then
  %20 = load i32, ptr %retval, align 4
  ret i32 %20
}