; Function Attrs: nounwind sspstrong uwtable
define dso_local range(i32 -2147483648, 1) i32 @virtio_bus_start_ioeventfd(ptr noundef %bus) local_unnamed_addr #0 {
entry:
  %call.i = tail call ptr @object_get_class(ptr noundef %bus) #5
  %call1.i = tail call ptr @object_class_dynamic_cast_assert(ptr noundef %call.i, ptr noundef nonnull @.str.11, ptr noundef nonnull @.str.12, i32 noundef 36, ptr noundef nonnull @__func__.VIRTIO_BUS_GET_CLASS) #5
  %call.i9 = tail call ptr @object_dynamic_cast_assert(ptr noundef %bus, ptr noundef nonnull @.str.10, ptr noundef nonnull @.str.9, i32 noundef 316, ptr noundef nonnull @__func__.BUS) #5
  %parent = getelementptr inbounds nuw i8, ptr %call.i9, i64 40
  %0 = load ptr, ptr %parent, align 8
  %call.i10 = tail call ptr @object_dynamic_cast_assert(ptr noundef %0, ptr noundef nonnull @.str.8, ptr noundef nonnull @.str.9, i32 noundef 77, ptr noundef nonnull @__func__.DEVICE) #5
  %1 = getelementptr i8, ptr %bus, i64 80
  %bus.val = load ptr, ptr %1, align 8
  %tobool.not.i = icmp eq ptr %bus.val, null
  br i1 %tobool.not.i, label %virtio_bus_get_device.exit, label %cond.true.i

cond.true.i:                                      ; preds = %entry
  %child.i = getelementptr inbounds nuw i8, ptr %bus.val, i64 16
  %2 = load ptr, ptr %child.i, align 8
  br label %virtio_bus_get_device.exit

virtio_bus_get_device.exit:                       ; preds = %entry, %cond.true.i
  %cond.i = phi ptr [ %2, %cond.true.i ], [ null, %entry ]
  %call.i11 = tail call ptr @object_get_class(ptr noundef %cond.i) #5
  %call1.i12 = tail call ptr @object_class_dynamic_cast_assert(ptr noundef %call.i11, ptr noundef nonnull @.str.13, ptr noundef nonnull @.str.14, i32 noundef 85, ptr noundef nonnull @__func__.VIRTIO_DEVICE_GET_CLASS) #5
  %ioeventfd_assign = getelementptr inbounds nuw i8, ptr %call1.i, i64 304
  %3 = load ptr, ptr %ioeventfd_assign, align 8
  %tobool.not = icmp eq ptr %3, null
  br i1 %tobool.not, label %return, label %lor.lhs.false

lor.lhs.false:                                    ; preds = %virtio_bus_get_device.exit
  %ioeventfd_enabled = getelementptr inbounds nuw i8, ptr %call1.i, i64 296
  %4 = load ptr, ptr %ioeventfd_enabled, align 8
  %call5 = tail call zeroext i1 %4(ptr noundef %call.i10) #5
  br i1 %call5, label %if.end, label %return

if.end:                                           ; preds = %lor.lhs.false
  %ioeventfd_started = getelementptr inbounds nuw i8, ptr %bus, i64 120
  %5 = load i8, ptr %ioeventfd_started, align 8
  %tobool6 = trunc i8 %5 to i1
  br i1 %tobool6, label %return, label %if.end8

if.end8:                                          ; preds = %if.end
  %ioeventfd_grabbed = getelementptr inbounds nuw i8, ptr %bus, i64 124
  %6 = load i32, ptr %ioeventfd_grabbed, align 4
  %tobool9.not = icmp eq i32 %6, 0
  br i1 %tobool9.not, label %if.then10, label %if.end14

if.then10:                                        ; preds = %if.end8
  %start_ioeventfd = getelementptr inbounds nuw i8, ptr %call1.i12, i64 296
  %7 = load ptr, ptr %start_ioeventfd, align 8
  %call11 = tail call i32 %7(ptr noundef %cond.i) #5
  %cmp = icmp slt i32 %call11, 0
  br i1 %cmp, label %if.then12, label %if.end14

if.then12:                                        ; preds = %if.then10
  tail call void (ptr, ...) @error_report(ptr noundef nonnull @.str.5, ptr noundef nonnull @__func__.virtio_bus_start_ioeventfd) #5
  br label %return

if.end14:                                         ; preds = %if.then10, %if.end8
  store i8 1, ptr %ioeventfd_started, align 8
  br label %return

return:                                           ; preds = %if.end, %virtio_bus_get_device.exit, %lor.lhs.false, %if.end14, %if.then12
  %retval.0 = phi i32 [ 0, %if.end14 ], [ %call11, %if.then12 ], [ -38, %lor.lhs.false ], [ -38, %virtio_bus_get_device.exit ], [ 0, %if.end ]
  ret i32 %retval.0
}